; ModuleID = '31/1228.c'
source_filename = "31/1228.c"
target datalayout = "e-m:e-p270:32:32-p271:32:32-p272:64:64-i64:64-f80:128-n8:16:32:64-S128"
target triple = "x86_64-pc-linux-gnu"

%struct.student = type { [20 x i8], [20 x i8], [1 x i8], i32, [10 x i8], [20 x i8], %struct.student* }

@.str = private unnamed_addr constant [3 x i8] c"%s\00", align 1
@.str.1 = private unnamed_addr constant [11 x i8] c"%s%s%d%s%s\00", align 1
@.str.2 = private unnamed_addr constant [19 x i8] c"%s %s %s %d %s %s\0A\00", align 1

; Function Attrs: noinline nounwind uwtable
define dso_local i32 @main() #0 {
  %1 = alloca i32, align 4
  %2 = alloca %struct.student*, align 8
  %3 = alloca %struct.student*, align 8
  %4 = alloca %struct.student*, align 8
  %5 = alloca i32, align 4
  store i32 0, i32* %1, align 4
  %6 = call noalias i8* @malloc(i64 100) #3
  %7 = bitcast i8* %6 to %struct.student*
  store %struct.student* %7, %struct.student** %4, align 8
  store %struct.student* %7, %struct.student** %3, align 8
  %8 = load %struct.student*, %struct.student** %3, align 8
  %9 = getelementptr inbounds %struct.student, %struct.student* %8, i32 0, i32 0
  %10 = call i32 (i8*, ...) @__isoc99_scanf(i8* getelementptr inbounds ([3 x i8], [3 x i8]* @.str, i64 0, i64 0), [20 x i8]* %9)
  store %struct.student* null, %struct.student** %2, align 8
  store i32 0, i32* %5, align 4
  br label %11

11:                                               ; preds = %40, %0
  %12 = load %struct.student*, %struct.student** %3, align 8
  %13 = getelementptr inbounds %struct.student, %struct.student* %12, i32 0, i32 0
  %14 = getelementptr inbounds [20 x i8], [20 x i8]* %13, i64 0, i64 0
  %15 = load i8, i8* %14, align 8
  %16 = sext i8 %15 to i32
  %17 = icmp ne i32 %16, 101
  br i1 %17, label %18, label %48

18:                                               ; preds = %11
  %19 = load %struct.student*, %struct.student** %3, align 8
  %20 = getelementptr inbounds %struct.student, %struct.student* %19, i32 0, i32 1
  %21 = load %struct.student*, %struct.student** %3, align 8
  %22 = getelementptr inbounds %struct.student, %struct.student* %21, i32 0, i32 2
  %23 = load %struct.student*, %struct.student** %3, align 8
  %24 = getelementptr inbounds %struct.student, %struct.student* %23, i32 0, i32 3
  %25 = load %struct.student*, %struct.student** %3, align 8
  %26 = getelementptr inbounds %struct.student, %struct.student* %25, i32 0, i32 4
  %27 = load %struct.student*, %struct.student** %3, align 8
  %28 = getelementptr inbounds %struct.student, %struct.student* %27, i32 0, i32 5
  %29 = call i32 (i8*, ...) @__isoc99_scanf(i8* getelementptr inbounds ([11 x i8], [11 x i8]* @.str.1, i64 0, i64 0), [20 x i8]* %20, [1 x i8]* %22, i32* %24, [10 x i8]* %26, [20 x i8]* %28)
  %30 = load i32, i32* %5, align 4
  %31 = add nsw i32 %30, 1
  store i32 %31, i32* %5, align 4
  %32 = load i32, i32* %5, align 4
  %33 = icmp eq i32 %32, 1
  br i1 %33, label %34, label %36

34:                                               ; preds = %18
  %35 = load %struct.student*, %struct.student** %3, align 8
  store %struct.student* %35, %struct.student** %4, align 8
  br label %40

36:                                               ; preds = %18
  %37 = load %struct.student*, %struct.student** %4, align 8
  %38 = load %struct.student*, %struct.student** %3, align 8
  %39 = getelementptr inbounds %struct.student, %struct.student* %38, i32 0, i32 6
  store %struct.student* %37, %struct.student** %39, align 8
  br label %40

40:                                               ; preds = %36, %34
  %41 = load %struct.student*, %struct.student** %3, align 8
  store %struct.student* %41, %struct.student** %2, align 8
  %42 = load %struct.student*, %struct.student** %3, align 8
  store %struct.student* %42, %struct.student** %4, align 8
  %43 = call noalias i8* @malloc(i64 100) #3
  %44 = bitcast i8* %43 to %struct.student*
  store %struct.student* %44, %struct.student** %3, align 8
  %45 = load %struct.student*, %struct.student** %3, align 8
  %46 = getelementptr inbounds %struct.student, %struct.student* %45, i32 0, i32 0
  %47 = call i32 (i8*, ...) @__isoc99_scanf(i8* getelementptr inbounds ([3 x i8], [3 x i8]* @.str, i64 0, i64 0), [20 x i8]* %46)
  br label %11

48:                                               ; preds = %11
  %49 = load %struct.student*, %struct.student** %2, align 8
  %50 = icmp ne %struct.student* %49, null
  br i1 %50, label %51, label %79

51:                                               ; preds = %48
  br label %52

52:                                               ; preds = %75, %51
  %53 = load %struct.student*, %struct.student** %2, align 8
  %54 = getelementptr inbounds %struct.student, %struct.student* %53, i32 0, i32 0
  %55 = getelementptr inbounds [20 x i8], [20 x i8]* %54, i64 0, i64 0
  %56 = load %struct.student*, %struct.student** %2, align 8
  %57 = getelementptr inbounds %struct.student, %struct.student* %56, i32 0, i32 1
  %58 = getelementptr inbounds [20 x i8], [20 x i8]* %57, i64 0, i64 0
  %59 = load %struct.student*, %struct.student** %2, align 8
  %60 = getelementptr inbounds %struct.student, %struct.student* %59, i32 0, i32 2
  %61 = getelementptr inbounds [1 x i8], [1 x i8]* %60, i64 0, i64 0
  %62 = load %struct.student*, %struct.student** %2, align 8
  %63 = getelementptr inbounds %struct.student, %struct.student* %62, i32 0, i32 3
  %64 = load i32, i32* %63, align 4
  %65 = load %struct.student*, %struct.student** %2, align 8
  %66 = getelementptr inbounds %struct.student, %struct.student* %65, i32 0, i32 4
  %67 = getelementptr inbounds [10 x i8], [10 x i8]* %66, i64 0, i64 0
  %68 = load %struct.student*, %struct.student** %2, align 8
  %69 = getelementptr inbounds %struct.student, %struct.student* %68, i32 0, i32 5
  %70 = getelementptr inbounds [20 x i8], [20 x i8]* %69, i64 0, i64 0
  %71 = call i32 (i8*, ...) @printf(i8* getelementptr inbounds ([19 x i8], [19 x i8]* @.str.2, i64 0, i64 0), i8* %55, i8* %58, i8* %61, i32 %64, i8* %67, i8* %70)
  %72 = load %struct.student*, %struct.student** %2, align 8
  %73 = getelementptr inbounds %struct.student, %struct.student* %72, i32 0, i32 6
  %74 = load %struct.student*, %struct.student** %73, align 8
  store %struct.student* %74, %struct.student** %2, align 8
  br label %75

75:                                               ; preds = %52
  %76 = load %struct.student*, %struct.student** %2, align 8
  %77 = icmp ne %struct.student* %76, null
  br i1 %77, label %52, label %78

78:                                               ; preds = %75
  br label %79

79:                                               ; preds = %78, %48
  %80 = load i32, i32* %1, align 4
  ret i32 %80
}

; Function Attrs: nounwind
declare dso_local noalias i8* @malloc(i64) #1

declare dso_local i32 @__isoc99_scanf(i8*, ...) #2

declare dso_local i32 @printf(i8*, ...) #2


!llvm.module.flags = !{!0}
!llvm.ident = !{!1}

!0 = !{i32 1, !"wchar_size", i32 4}
!1 = !{!"clang version 10.0.0-4ubuntu1 "}
